target datalayout = "e-m:e-p270:32:32-p271:32:32-p272:64:64-i64:64-i128:128-f80:128-n8:16:32:64-S128"
target triple = "x86_64-pc-linux-gnu"

%struct.PlatformTarget = type { ptr, i32, ptr, ptr, i32, i32, i32, i32, i32, i32, i32, [7 x %struct.AlignData], [7 x %struct.AlignData], [7 x %struct.AlignData], i32, i16, %union.anon.97, i8, i8, i8, i8, i8, i8, i8, i8, i8, i8, %struct.AlignData, i32, i32, i32, i32, i32, i32, i32, i32, i32, i32, i32, i32, i32, i32, i32, i32, ptr }
%union.anon.97 = type { %struct.anon.99 }
%struct.anon.99 = type { %struct.X86Features, i32, i32 }
%struct.X86Features = type { [2 x i64], ptr }
%struct.AlignData = type { i32, i32 }
%union.SourceSpan = type { i64 }
%struct.GenContext_ = type { i8, ptr, ptr, ptr, ptr, ptr, ptr, ptr, ptr, ptr, ptr, ptr, ptr, ptr, ptr, ptr, ptr, ptr, ptr, ptr, ptr, ptr, ptr, ptr, ptr, ptr, ptr, ptr, ptr, ptr, ptr, ptr, ptr, %struct.anon.85, i32, i32, %struct.DebugContext, ptr, ptr, ptr, %struct.BEValue, i8, %union.SourceSpan, ptr, ptr, ptr, ptr }
%struct.anon.85 = type { ptr, ptr, ptr }
%struct.DebugContext = type { i16, ptr, ptr, %struct.DebugFile_, ptr, ptr, ptr, ptr }
%struct.DebugFile_ = type { i16, ptr }
%struct.BEValue = type { i8, i32, ptr, ptr, ptr }

@.str.5 = private unnamed_addr constant [8 x i8] c"$sel.%s\00", align 1
@platform_target = external global %struct.PlatformTarget, align 8

; Function Attrs: nounwind uwtable
define dso_local void @llvm_set_comdat(ptr noundef %0, ptr noundef %1) #0 {
  %3 = alloca ptr, align 8
  %4 = alloca ptr, align 8
  %5 = alloca ptr, align 8
  store ptr %0, ptr %3, align 8
  store ptr %1, ptr %4, align 8
  %6 = load i16, ptr getelementptr inbounds (%struct.PlatformTarget, ptr @platform_target, i32 0, i32 15), align 8
  %7 = lshr i16 %6, 13
  %8 = and i16 %7, 1
  %9 = trunc i16 %8 to i1
  br i1 %9, label %11, label %10

10:                                               ; preds = %2
  br label %21

11:                                               ; preds = %2
  %12 = load ptr, ptr %3, align 8
  %13 = getelementptr inbounds %struct.GenContext_, ptr %12, i32 0, i32 1
  %14 = load ptr, ptr %13, align 8
  %15 = load ptr, ptr %4, align 8
  %16 = call ptr @LLVMGetValueName(ptr noundef %15)
  %17 = call ptr @LLVMGetOrInsertComdat(ptr noundef %14, ptr noundef %16)
  store ptr %17, ptr %5, align 8
  %18 = load ptr, ptr %5, align 8
  call void @LLVMSetComdatSelectionKind(ptr noundef %18, i32 noundef 0)
  %19 = load ptr, ptr %4, align 8
  %20 = load ptr, ptr %5, align 8
  call void @LLVMSetComdat(ptr noundef %19, ptr noundef %20)
  br label %21

21:                                               ; preds = %11, %10
  ret void
}

; Function Attrs: nounwind uwtable
define dso_local ptr @llvm_get_selector(ptr noundef %0, ptr noundef %1) #0 {
  %3 = alloca ptr, align 8
  %4 = alloca ptr, align 8
  %5 = alloca i64, align 8
  %6 = alloca ptr, align 8
  %7 = alloca ptr, align 8
  %8 = alloca ptr, align 8
  %9 = alloca i32, align 4
  %10 = alloca ptr, align 8
  %11 = alloca ptr, align 8
  %12 = alloca ptr, align 8
  %13 = alloca ptr, align 8
  %14 = alloca ptr, align 8
  %15 = alloca ptr, align 8
  %16 = alloca i64, align 8
  %17 = alloca ptr, align 8
  %18 = alloca ptr, align 8
  store ptr %0, ptr %12, align 8
  store ptr %1, ptr %13, align 8
  call void @scratch_buffer_clear()
  %19 = load ptr, ptr %13, align 8
  call void (ptr, ...) @scratch_buffer_printf(ptr noundef @.str.5, ptr noundef %19)
  %20 = call ptr @scratch_buffer_to_string()
  store ptr %20, ptr %14, align 8
  %21 = load ptr, ptr %12, align 8
  %22 = getelementptr inbounds %struct.GenContext_, ptr %21, i32 0, i32 1
  %23 = load ptr, ptr %22, align 8
  %24 = load ptr, ptr %14, align 8
  %25 = call ptr @LLVMGetNamedGlobal(ptr noundef %23, ptr noundef %24)
  store ptr %25, ptr %15, align 8
  %26 = load ptr, ptr %15, align 8
  %27 = icmp ne ptr %26, null
  br i1 %27, label %28, label %30

28:                                               ; preds = %2
  %29 = load ptr, ptr %15, align 8
  store ptr %29, ptr %11, align 8
  br label %79

30:                                               ; preds = %2
  %31 = load ptr, ptr %13, align 8
  %32 = call i64 @strlen(ptr noundef %31) #8
  store i64 %32, ptr %16, align 8
  %33 = load ptr, ptr %12, align 8
  %34 = getelementptr inbounds %struct.GenContext_, ptr %33, i32 0, i32 21
  %35 = load ptr, ptr %34, align 8
  %36 = load i64, ptr %16, align 8
  %37 = add i64 %36, 1
  %38 = trunc i64 %37 to i32
  %39 = call ptr @LLVMArrayType(ptr noundef %35, i32 noundef %38)
  store ptr %39, ptr %17, align 8
  %40 = load ptr, ptr %12, align 8
  %41 = load ptr, ptr %14, align 8
  %42 = load ptr, ptr %17, align 8
  store ptr %40, ptr %6, align 8
  store ptr %41, ptr %7, align 8
  store ptr %42, ptr %8, align 8
  store i32 0, ptr %9, align 4
  %43 = load ptr, ptr %6, align 8
  %44 = getelementptr inbounds %struct.GenContext_, ptr %43, i32 0, i32 1
  %45 = load ptr, ptr %44, align 8
  %46 = load ptr, ptr %8, align 8
  %47 = load ptr, ptr %7, align 8
  %48 = call ptr @LLVMAddGlobal(ptr noundef %45, ptr noundef %46, ptr noundef %47) #7
  store ptr %48, ptr %10, align 8
  %49 = load ptr, ptr %10, align 8
  %50 = load i32, ptr %9, align 4
  %51 = icmp ne i32 %50, 0
  br i1 %51, label %52, label %54

52:                                               ; preds = %30
  %53 = load i32, ptr %9, align 4
  br label %60

54:                                               ; preds = %30
  %55 = load ptr, ptr %6, align 8
  %56 = getelementptr inbounds %struct.GenContext_, ptr %55, i32 0, i32 4
  %57 = load ptr, ptr %56, align 8
  %58 = load ptr, ptr %10, align 8
  %59 = call i32 @LLVMPreferredAlignmentOfGlobal(ptr noundef %57, ptr noundef %58) #7
  br label %60

60:                                               ; preds = %54, %52
  %61 = phi i32 [ %53, %52 ], [ %59, %54 ]
  call void @LLVMSetAlignment(ptr noundef %49, i32 noundef %61) #7
  %62 = load ptr, ptr %10, align 8
  store ptr %62, ptr %18, align 8
  %63 = load ptr, ptr %18, align 8
  call void @LLVMSetGlobalConstant(ptr noundef %63, i32 noundef 1)
  %64 = load ptr, ptr %18, align 8
  %65 = load ptr, ptr %12, align 8
  %66 = load ptr, ptr %13, align 8
  %67 = load i64, ptr %16, align 8
  store ptr %65, ptr %3, align 8
  store ptr %66, ptr %4, align 8
  store i64 %67, ptr %5, align 8
  %68 = load ptr, ptr %3, align 8
  %69 = getelementptr inbounds %struct.GenContext_, ptr %68, i32 0, i32 5
  %70 = load ptr, ptr %69, align 8
  %71 = load ptr, ptr %4, align 8
  %72 = load i64, ptr %5, align 8
  %73 = trunc i64 %72 to i32
  %74 = call ptr @LLVMConstStringInContext(ptr noundef %70, ptr noundef %71, i32 noundef %73, i32 noundef 0) #7
  call void @LLVMSetInitializer(ptr noundef %64, ptr noundef %74)
  %75 = load ptr, ptr %18, align 8
  call void @LLVMSetLinkage(ptr noundef %75, i32 noundef 3)
  %76 = load ptr, ptr %12, align 8
  %77 = load ptr, ptr %18, align 8
  call void @llvm_set_comdat(ptr noundef %76, ptr noundef %77)
  %78 = load ptr, ptr %18, align 8
  store ptr %78, ptr %11, align 8
  br label %79

79:                                               ; preds = %60, %28
  %80 = load ptr, ptr %11, align 8
  ret ptr %80
}