; Function Attrs: nounwind uwtable
define dso_local ptr @llvm_get_selector(ptr nocapture noundef readonly %0, ptr noundef %1) local_unnamed_addr #0 {
  tail call void @scratch_buffer_clear() #10
  tail call void (ptr, ...) @scratch_buffer_printf(ptr noundef nonnull @.str.5, ptr noundef %1) #10
  %3 = tail call ptr @scratch_buffer_to_string() #10
  %4 = getelementptr inbounds i8, ptr %0, i64 8
  %5 = load ptr, ptr %4, align 8
  %6 = tail call ptr @LLVMGetNamedGlobal(ptr noundef %5, ptr noundef %3) #10
  %.not = icmp eq ptr %6, null
  br i1 %.not, label %7, label %llvm_set_comdat.exit

7:                                                ; preds = %2
  %8 = tail call i64 @strlen(ptr noundef nonnull dereferenceable(1) %1) #11
  %9 = getelementptr inbounds i8, ptr %0, i64 168
  %10 = load ptr, ptr %9, align 8
  %11 = trunc i64 %8 to i32
  %12 = add i32 %11, 1
  %13 = tail call ptr @LLVMArrayType(ptr noundef %10, i32 noundef %12) #10
  %14 = load ptr, ptr %4, align 8
  %15 = tail call ptr @LLVMAddGlobal(ptr noundef %14, ptr noundef %13, ptr noundef %3) #10
  %16 = getelementptr inbounds i8, ptr %0, i64 32
  %17 = load ptr, ptr %16, align 8
  %18 = tail call i32 @LLVMPreferredAlignmentOfGlobal(ptr noundef %17, ptr noundef %15) #10
  tail call void @LLVMSetAlignment(ptr noundef %15, i32 noundef %18) #10
  tail call void @LLVMSetGlobalConstant(ptr noundef %15, i32 noundef 1) #10
  %19 = getelementptr inbounds i8, ptr %0, i64 40
  %20 = load ptr, ptr %19, align 8
  %21 = tail call ptr @LLVMConstStringInContext(ptr noundef %20, ptr noundef %1, i32 noundef %11, i32 noundef 0) #10
  tail call void @LLVMSetInitializer(ptr noundef %15, ptr noundef %21) #10
  tail call void @LLVMSetLinkage(ptr noundef %15, i32 noundef 3) #10
  %22 = load i16, ptr getelementptr inbounds (%struct.PlatformTarget, ptr @platform_target, i64 0, i32 15), align 8
  %23 = and i16 %22, 8192
  %.not.i = icmp eq i16 %23, 0
  br i1 %.not.i, label %llvm_set_comdat.exit, label %24

24:                                               ; preds = %7
  %25 = load ptr, ptr %4, align 8
  %26 = tail call ptr @LLVMGetValueName(ptr noundef %15) #10
  %27 = tail call ptr @LLVMGetOrInsertComdat(ptr noundef %25, ptr noundef %26) #10
  tail call void @LLVMSetComdatSelectionKind(ptr noundef %27, i32 noundef 0) #10
  tail call void @LLVMSetComdat(ptr noundef %15, ptr noundef %27) #10
  br label %llvm_set_comdat.exit

llvm_set_comdat.exit:                             ; preds = %24, %7, %2
  %.0 = phi ptr [ %6, %2 ], [ %15, %7 ], [ %15, %24 ]
  ret ptr %.0
}